target datalayout = "e-m:e-p270:32:32-p271:32:32-p272:64:64-i64:64-i128:128-f80:128-n8:16:32:64-S128"
target triple = "x86_64-pc-linux-gnu"

%struct.AVFilterPad = type { ptr, i32, i32, %union.anon, ptr, ptr, ptr }
%union.anon = type { ptr }
%struct.AVFilterContext = type { ptr, ptr, ptr, ptr, ptr, i32, ptr, ptr, i32, ptr, ptr, i32, i32, ptr, ptr, ptr, ptr, i32, ptr, i32, i32 }
%struct.XMedianContext = type { ptr, ptr, i32, i32, i32, i32, float, i32, i32, i32, i32, i32, i32, [4 x i32], [4 x i32], [4 x i32], ptr, ptr, ptr, %struct.FFFrameSync, ptr }
%struct.FFFrameSync = type { ptr, ptr, i32, %struct.AVRational, i64, ptr, ptr, i32, i32, i8, i8, ptr, i32, i32, i32, i32 }
%struct.AVRational = type { i32, i32 }

@.str.14 = private unnamed_addr constant [8 x i8] c"input%d\00", align 1

; Function Attrs: cold nounwind optsize uwtable
define internal i32 @xmedian_init(ptr noundef %0) #1 {
  %2 = alloca i32, align 4
  %3 = alloca ptr, align 8
  %4 = alloca ptr, align 8
  %5 = alloca i32, align 4
  %6 = alloca i32, align 4
  %7 = alloca i32, align 4
  %8 = alloca %struct.AVFilterPad, align 8
  store ptr %0, ptr %3, align 8, !tbaa !4
  call void @llvm.lifetime.start.p0(i64 8, ptr %4) #11
  %9 = load ptr, ptr %3, align 8, !tbaa !4
  %10 = getelementptr inbounds nuw %struct.AVFilterContext, ptr %9, i32 0, i32 9
  %11 = load ptr, ptr %10, align 8, !tbaa !9
  store ptr %11, ptr %4, align 8, !tbaa !22
  call void @llvm.lifetime.start.p0(i64 4, ptr %5) #11
  %12 = load ptr, ptr %4, align 8, !tbaa !22
  %13 = getelementptr inbounds nuw %struct.XMedianContext, ptr %12, i32 0, i32 7
  store i32 1, ptr %13, align 4, !tbaa !24
  %14 = load ptr, ptr %4, align 8, !tbaa !22
  %15 = getelementptr inbounds nuw %struct.XMedianContext, ptr %14, i32 0, i32 2
  %16 = load i32, ptr %15, align 8, !tbaa !35
  %17 = sdiv i32 %16, 2
  %18 = load ptr, ptr %4, align 8, !tbaa !22
  %19 = getelementptr inbounds nuw %struct.XMedianContext, ptr %18, i32 0, i32 8
  store i32 %17, ptr %19, align 8, !tbaa !36
  call void @llvm.lifetime.start.p0(i64 4, ptr %6) #11
  store i32 0, ptr %6, align 4, !tbaa !37
  br label %20

20:                                               ; preds = %46, %1
  %21 = load i32, ptr %6, align 4, !tbaa !37
  %22 = load ptr, ptr %4, align 8, !tbaa !22
  %23 = getelementptr inbounds nuw %struct.XMedianContext, ptr %22, i32 0, i32 2
  %24 = load i32, ptr %23, align 8, !tbaa !35
  %25 = icmp slt i32 %21, %24
  br i1 %25, label %27, label %26

26:                                               ; preds = %20
  store i32 2, ptr %7, align 4
  br label %49

27:                                               ; preds = %20
  call void @llvm.lifetime.start.p0(i64 48, ptr %8) #11
  call void @llvm.memset.p0.i64(ptr align 8 %8, i8 0, i64 48, i1 false)
  %28 = getelementptr inbounds nuw %struct.AVFilterPad, ptr %8, i32 0, i32 1
  store i32 0, ptr %28, align 8, !tbaa !38
  %29 = load i32, ptr %6, align 4, !tbaa !37
  %30 = call ptr (ptr, ...) @av_asprintf(ptr noundef @.str.14, i32 noundef %29)
  %31 = getelementptr inbounds nuw %struct.AVFilterPad, ptr %8, i32 0, i32 0
  store ptr %30, ptr %31, align 8, !tbaa !40
  %32 = getelementptr inbounds nuw %struct.AVFilterPad, ptr %8, i32 0, i32 0
  %33 = load ptr, ptr %32, align 8, !tbaa !40
  %34 = icmp ne ptr %33, null
  br i1 %34, label %36, label %35

35:                                               ; preds = %27
  store i32 -12, ptr %2, align 4
  store i32 1, ptr %7, align 4
  br label %43

36:                                               ; preds = %27
  %37 = load ptr, ptr %3, align 8, !tbaa !4
  %38 = call i32 @ff_append_inpad_free_name(ptr noundef %37, ptr noundef %8)
  store i32 %38, ptr %5, align 4, !tbaa !37
  %39 = icmp slt i32 %38, 0
  br i1 %39, label %40, label %42

40:                                               ; preds = %36
  %41 = load i32, ptr %5, align 4, !tbaa !37
  store i32 %41, ptr %2, align 4
  store i32 1, ptr %7, align 4
  br label %43

42:                                               ; preds = %36
  store i32 0, ptr %7, align 4
  br label %43

43:                                               ; preds = %42, %40, %35
  call void @llvm.lifetime.end.p0(i64 48, ptr %8) #11
  %44 = load i32, ptr %7, align 4
  switch i32 %44, label %49 [
    i32 0, label %45
  ]

45:                                               ; preds = %43
  br label %46

46:                                               ; preds = %45
  %47 = load i32, ptr %6, align 4, !tbaa !37
  %48 = add nsw i32 %47, 1
  store i32 %48, ptr %6, align 4, !tbaa !37
  br label %20, !llvm.loop !41

49:                                               ; preds = %43, %26
  call void @llvm.lifetime.end.p0(i64 4, ptr %6) #11
  %50 = load i32, ptr %7, align 4
  switch i32 %50, label %54 [
    i32 2, label %51
  ]

51:                                               ; preds = %49
  %52 = load ptr, ptr %3, align 8, !tbaa !4
  %53 = call i32 @init(ptr noundef %52) #12
  store i32 %53, ptr %2, align 4
  store i32 1, ptr %7, align 4
  br label %54

54:                                               ; preds = %51, %49
  call void @llvm.lifetime.end.p0(i64 4, ptr %5) #11
  call void @llvm.lifetime.end.p0(i64 8, ptr %4) #11
  %55 = load i32, ptr %2, align 4
  ret i32 %55
}