; Function Attrs: cold nounwind optsize uwtable
define internal range(i32 -2147483648, 1) i32 @xmedian_init(ptr noundef %0) #1 {
  %2 = alloca %struct.AVFilterPad, align 8
  %3 = getelementptr inbounds nuw i8, ptr %0, i64 72
  %4 = load ptr, ptr %3, align 8, !tbaa !4
  %5 = getelementptr inbounds nuw i8, ptr %4, i64 36
  store i32 1, ptr %5, align 4, !tbaa !20
  %6 = getelementptr inbounds nuw i8, ptr %4, i64 16
  %7 = load i32, ptr %6, align 8, !tbaa !32
  %8 = sdiv i32 %7, 2
  %9 = getelementptr inbounds nuw i8, ptr %4, i64 40
  store i32 %8, ptr %9, align 8, !tbaa !33
  %.not1823 = icmp sgt i32 %7, 0
  br i1 %.not1823, label %.lr.ph, label %._crit_edge

10:                                               ; preds = %14
  %11 = add nuw nsw i32 %.01425, 1
  %12 = load i32, ptr %6, align 8, !tbaa !32
  %.not18 = icmp slt i32 %11, %12
  br i1 %.not18, label %.lr.ph, label %._crit_edge, !llvm.loop !34

.lr.ph:                                           ; preds = %1, %10
  %.01425 = phi i32 [ %11, %10 ], [ 0, %1 ]
  call void @llvm.lifetime.start.p0(i64 48, ptr nonnull %2) #10
  call void @llvm.memset.p0.i64(ptr noundef nonnull align 8 dereferenceable(48) %2, i8 0, i64 48, i1 false)
  %13 = call ptr (ptr, ...) @av_asprintf(ptr noundef nonnull @.str.14, i32 noundef %.01425) #10
  store ptr %13, ptr %2, align 8, !tbaa !36
  %.not = icmp eq ptr %13, null
  br i1 %.not, label %.thread, label %14

.thread:                                          ; preds = %.lr.ph
  call void @llvm.lifetime.end.p0(i64 48, ptr nonnull %2) #10
  br label %.thread21

14:                                               ; preds = %.lr.ph
  %15 = call i32 @ff_append_inpad_free_name(ptr noundef %0, ptr noundef nonnull %2) #10
  %16 = icmp sgt i32 %15, -1
  call void @llvm.lifetime.end.p0(i64 48, ptr nonnull %2) #10
  br i1 %16, label %10, label %.thread21

._crit_edge:                                      ; preds = %10, %1
  %17 = call i32 @init(ptr noundef %0) #11
  br label %.thread21

.thread21:                                        ; preds = %14, %.thread, %._crit_edge
  %.3 = phi i32 [ %17, %._crit_edge ], [ -12, %.thread ], [ %15, %14 ]
  ret i32 %.3
}